; ModuleID = '20/65.c'
source_filename = "20/65.c"
target datalayout = "e-m:e-p270:32:32-p271:32:32-p272:64:64-i64:64-f80:128-n8:16:32:64-S128"
target triple = "x86_64-pc-linux-gnu"

@.str = private unnamed_addr constant [6 x i8] c"%s %s\00", align 1
@.str.1 = private unnamed_addr constant [3 x i8] c"%c\00", align 1
@.str.2 = private unnamed_addr constant [3 x i8] c"%s\00", align 1
@.str.3 = private unnamed_addr constant [4 x i8] c"%c\0A\00", align 1

; Function Attrs: noinline nounwind uwtable
define dso_local void @main() #0 {
  %1 = alloca i32, align 4
  %2 = alloca i32, align 4
  %3 = alloca i32, align 4
  %4 = alloca [10 x i8], align 1
  %5 = alloca [3 x i8], align 1
  %6 = alloca i8, align 1
  store i8 -1, i8* %6, align 1
  store i32 0, i32* %3, align 4
  br label %7

7:                                                ; preds = %80, %0
  %8 = call i32 (i8*, ...) @__isoc99_scanf(i8* getelementptr inbounds ([6 x i8], [6 x i8]* @.str, i64 0, i64 0), [10 x i8]* %4, [3 x i8]* %5)
  %9 = icmp eq i32 %8, -1
  br i1 %9, label %10, label %11

10:                                               ; preds = %7
  br label %83

11:                                               ; preds = %7
  store i32 0, i32* %1, align 4
  br label %12

12:                                               ; preds = %34, %11
  %13 = load i32, i32* %1, align 4
  %14 = sext i32 %13 to i64
  %15 = getelementptr inbounds [10 x i8], [10 x i8]* %4, i64 0, i64 0
  %16 = call i64 @strlen(i8* %15) #3
  %17 = icmp ult i64 %14, %16
  br i1 %17, label %18, label %37

18:                                               ; preds = %12
  %19 = load i32, i32* %1, align 4
  %20 = sext i32 %19 to i64
  %21 = getelementptr inbounds [10 x i8], [10 x i8]* %4, i64 0, i64 %20
  %22 = load i8, i8* %21, align 1
  %23 = sext i8 %22 to i32
  %24 = load i8, i8* %6, align 1
  %25 = sext i8 %24 to i32
  %26 = icmp sgt i32 %23, %25
  br i1 %26, label %27, label %33

27:                                               ; preds = %18
  %28 = load i32, i32* %1, align 4
  store i32 %28, i32* %2, align 4
  %29 = load i32, i32* %1, align 4
  %30 = sext i32 %29 to i64
  %31 = getelementptr inbounds [10 x i8], [10 x i8]* %4, i64 0, i64 %30
  %32 = load i8, i8* %31, align 1
  store i8 %32, i8* %6, align 1
  br label %33

33:                                               ; preds = %27, %18
  br label %34

34:                                               ; preds = %33
  %35 = load i32, i32* %1, align 4
  %36 = add nsw i32 %35, 1
  store i32 %36, i32* %1, align 4
  br label %12

37:                                               ; preds = %12
  store i32 0, i32* %1, align 4
  br label %38

38:                                               ; preds = %50, %37
  %39 = load i32, i32* %1, align 4
  %40 = load i32, i32* %2, align 4
  %41 = add nsw i32 %40, 1
  %42 = icmp slt i32 %39, %41
  br i1 %42, label %43, label %53

43:                                               ; preds = %38
  %44 = load i32, i32* %1, align 4
  %45 = sext i32 %44 to i64
  %46 = getelementptr inbounds [10 x i8], [10 x i8]* %4, i64 0, i64 %45
  %47 = load i8, i8* %46, align 1
  %48 = sext i8 %47 to i32
  %49 = call i32 (i8*, ...) @printf(i8* getelementptr inbounds ([3 x i8], [3 x i8]* @.str.1, i64 0, i64 0), i32 %48)
  br label %50

50:                                               ; preds = %43
  %51 = load i32, i32* %1, align 4
  %52 = add nsw i32 %51, 1
  store i32 %52, i32* %1, align 4
  br label %38

53:                                               ; preds = %38
  %54 = getelementptr inbounds [3 x i8], [3 x i8]* %5, i64 0, i64 0
  %55 = call i32 (i8*, ...) @printf(i8* getelementptr inbounds ([3 x i8], [3 x i8]* @.str.2, i64 0, i64 0), i8* %54)
  br label %56

56:                                               ; preds = %70, %53
  %57 = load i32, i32* %1, align 4
  %58 = sext i32 %57 to i64
  %59 = getelementptr inbounds [10 x i8], [10 x i8]* %4, i64 0, i64 0
  %60 = call i64 @strlen(i8* %59) #3
  %61 = sub i64 %60, 1
  %62 = icmp ult i64 %58, %61
  br i1 %62, label %63, label %73

63:                                               ; preds = %56
  %64 = load i32, i32* %1, align 4
  %65 = sext i32 %64 to i64
  %66 = getelementptr inbounds [10 x i8], [10 x i8]* %4, i64 0, i64 %65
  %67 = load i8, i8* %66, align 1
  %68 = sext i8 %67 to i32
  %69 = call i32 (i8*, ...) @printf(i8* getelementptr inbounds ([3 x i8], [3 x i8]* @.str.1, i64 0, i64 0), i32 %68)
  br label %70

70:                                               ; preds = %63
  %71 = load i32, i32* %1, align 4
  %72 = add nsw i32 %71, 1
  store i32 %72, i32* %1, align 4
  br label %56

73:                                               ; preds = %56
  %74 = load i32, i32* %1, align 4
  %75 = sext i32 %74 to i64
  %76 = getelementptr inbounds [10 x i8], [10 x i8]* %4, i64 0, i64 %75
  %77 = load i8, i8* %76, align 1
  %78 = sext i8 %77 to i32
  %79 = call i32 (i8*, ...) @printf(i8* getelementptr inbounds ([4 x i8], [4 x i8]* @.str.3, i64 0, i64 0), i32 %78)
  store i8 -1, i8* %6, align 1
  br label %80

80:                                               ; preds = %73
  %81 = load i32, i32* %3, align 4
  %82 = add nsw i32 %81, 1
  store i32 %82, i32* %3, align 4
  br label %7

83:                                               ; preds = %10
  ret void
}

declare dso_local i32 @__isoc99_scanf(i8*, ...) #1

; Function Attrs: nounwind readonly
declare dso_local i64 @strlen(i8*) #2

declare dso_local i32 @printf(i8*, ...) #1


!llvm.module.flags = !{!0}
!llvm.ident = !{!1}

!0 = !{i32 1, !"wchar_size", i32 4}
!1 = !{!"clang version 10.0.0-4ubuntu1 "}
